target datalayout = "e-m:e-p270:32:32-p271:32:32-p272:64:64-i64:64-i128:128-f80:128-n8:16:32:64-S128"
target triple = "x86_64-pc-linux-gnu"

%"class.std::__cxx11::basic_string" = type { %"struct.std::__cxx11::basic_string<char>::_Alloc_hider", i64, %union.anon }
%"struct.std::__cxx11::basic_string<char>::_Alloc_hider" = type { ptr }
%union.anon = type { i64, [8 x i8] }
%"class.std::allocator" = type { i8 }

@.str.8 = private unnamed_addr constant [146 x i8] c"generated/home/dtcxzyw/WorkSpace/Projects/compilers/llvm-opt-benchmark/bench/openspiel/open_spiel/open_spiel/games/cliff_walking/cliff_walking.cc\00", align 1
@.str.9 = private unnamed_addr constant [2 x i8] c":\00", align 1
@.str.10 = private unnamed_addr constant [2 x i8] c" \00", align 1
@.str.11 = private unnamed_addr constant [12 x i8] c"player == 0\00", align 1
@.str.12 = private unnamed_addr constant [8 x i8] c"\0Aplayer\00", align 1
@.str.13 = private unnamed_addr constant [4 x i8] c" = \00", align 1
@.str.14 = private unnamed_addr constant [7 x i8] c", 0 = \00", align 1
@.str.15 = private unnamed_addr constant [6 x i8] c"RIGHT\00", align 1
@.str.16 = private unnamed_addr constant [3 x i8] c"UP\00", align 1
@.str.17 = private unnamed_addr constant [5 x i8] c"LEFT\00", align 1
@.str.18 = private unnamed_addr constant [5 x i8] c"DOWN\00", align 1
@.str.19 = private unnamed_addr constant [20 x i8] c"Out of range action\00", align 1

; Function Attrs: mustprogress uwtable
define void @_ZNK10open_spiel13cliff_walking17CliffWalkingState14ActionToStringB5cxx11Eil(ptr dead_on_unwind noalias writable sret(%"class.std::__cxx11::basic_string") align 8 %0, ptr noundef nonnull align 8 dereferenceable(84) %1, i32 noundef %2, i64 noundef %3) unnamed_addr #4 align 2 personality ptr @__gxx_personality_v0 {
  %5 = alloca ptr, align 8
  %6 = alloca ptr, align 8
  %7 = alloca i32, align 4
  %8 = alloca i64, align 8
  %9 = alloca i32, align 4
  %10 = alloca i32, align 4
  %11 = alloca %"class.std::__cxx11::basic_string", align 8
  %12 = alloca i32, align 4
  %13 = alloca ptr, align 8
  %14 = alloca i32, align 4
  %15 = alloca %"class.std::allocator", align 1
  %16 = alloca %"class.std::allocator", align 1
  %17 = alloca %"class.std::allocator", align 1
  %18 = alloca %"class.std::allocator", align 1
  %19 = alloca %"class.std::__cxx11::basic_string", align 8
  %20 = alloca %"class.std::allocator", align 1
  store ptr %0, ptr %5, align 8
  store ptr %1, ptr %6, align 8
  store i32 %2, ptr %7, align 4
  store i64 %3, ptr %8, align 8
  br label %21

21:                                               ; preds = %4
  %22 = load i32, ptr %7, align 4
  store i32 %22, ptr %9, align 4
  store i32 0, ptr %10, align 4
  %23 = load i32, ptr %9, align 4
  %24 = load i32, ptr %10, align 4
  %25 = icmp eq i32 %23, %24
  br i1 %25, label %32, label %26

26:                                               ; preds = %21
  store i32 81, ptr %12, align 4
  call void @_ZN10open_spiel8internal11SpielStrCatIJRA146_KcRA2_S2_iS6_RA12_S2_RA8_S2_RA4_S2_RiRA7_S2_SD_EEENSt7__cxx1112basic_stringIcSt11char_traitsIcESaIcEEEDpOT_(ptr dead_on_unwind writable sret(%"class.std::__cxx11::basic_string") align 8 %11, ptr noundef nonnull align 1 dereferenceable(146) @.str.8, ptr noundef nonnull align 1 dereferenceable(2) @.str.9, ptr noundef nonnull align 4 dereferenceable(4) %12, ptr noundef nonnull align 1 dereferenceable(2) @.str.10, ptr noundef nonnull align 1 dereferenceable(12) @.str.11, ptr noundef nonnull align 1 dereferenceable(8) @.str.12, ptr noundef nonnull align 1 dereferenceable(4) @.str.13, ptr noundef nonnull align 4 dereferenceable(4) %9, ptr noundef nonnull align 1 dereferenceable(7) @.str.14, ptr noundef nonnull align 4 dereferenceable(4) %10)
  invoke void @_ZN10open_spiel15SpielFatalErrorERKNSt7__cxx1112basic_stringIcSt11char_traitsIcESaIcEEE(ptr noundef nonnull align 8 dereferenceable(32) %11) #14
          to label %27 unwind label %28

27:                                               ; preds = %26
  unreachable

28:                                               ; preds = %26
  %29 = landingpad { ptr, i32 }
          cleanup
  %30 = extractvalue { ptr, i32 } %29, 0
  store ptr %30, ptr %13, align 8
  %31 = extractvalue { ptr, i32 } %29, 1
  store i32 %31, ptr %14, align 4
  call void @_ZNSt7__cxx1112basic_stringIcSt11char_traitsIcESaIcEED1Ev(ptr noundef nonnull align 8 dereferenceable(32) %11) #3
  br label %72

32:                                               ; preds = %21
  br label %33

33:                                               ; preds = %32
  %34 = load i64, ptr %8, align 8
  switch i64 %34, label %59 [
    i64 0, label %35
    i64 1, label %41
    i64 2, label %47
    i64 3, label %53
  ]

35:                                               ; preds = %33
  call void @_ZNSaIcEC1Ev(ptr noundef nonnull align 1 dereferenceable(1) %15) #3
  invoke void @_ZNSt7__cxx1112basic_stringIcSt11char_traitsIcESaIcEEC2IS3_EEPKcRKS3_(ptr noundef nonnull align 8 dereferenceable(32) %0, ptr noundef @.str.15, ptr noundef nonnull align 1 dereferenceable(1) %15)
          to label %36 unwind label %37

36:                                               ; preds = %35
  call void @_ZNSaIcED1Ev(ptr noundef nonnull align 1 dereferenceable(1) %15) #3
  br label %71

37:                                               ; preds = %35
  %38 = landingpad { ptr, i32 }
          cleanup
  %39 = extractvalue { ptr, i32 } %38, 0
  store ptr %39, ptr %13, align 8
  %40 = extractvalue { ptr, i32 } %38, 1
  store i32 %40, ptr %14, align 4
  call void @_ZNSaIcED1Ev(ptr noundef nonnull align 1 dereferenceable(1) %15) #3
  br label %72

41:                                               ; preds = %33
  call void @_ZNSaIcEC1Ev(ptr noundef nonnull align 1 dereferenceable(1) %16) #3
  invoke void @_ZNSt7__cxx1112basic_stringIcSt11char_traitsIcESaIcEEC2IS3_EEPKcRKS3_(ptr noundef nonnull align 8 dereferenceable(32) %0, ptr noundef @.str.16, ptr noundef nonnull align 1 dereferenceable(1) %16)
          to label %42 unwind label %43

42:                                               ; preds = %41
  call void @_ZNSaIcED1Ev(ptr noundef nonnull align 1 dereferenceable(1) %16) #3
  br label %71

43:                                               ; preds = %41
  %44 = landingpad { ptr, i32 }
          cleanup
  %45 = extractvalue { ptr, i32 } %44, 0
  store ptr %45, ptr %13, align 8
  %46 = extractvalue { ptr, i32 } %44, 1
  store i32 %46, ptr %14, align 4
  call void @_ZNSaIcED1Ev(ptr noundef nonnull align 1 dereferenceable(1) %16) #3
  br label %72

47:                                               ; preds = %33
  call void @_ZNSaIcEC1Ev(ptr noundef nonnull align 1 dereferenceable(1) %17) #3
  invoke void @_ZNSt7__cxx1112basic_stringIcSt11char_traitsIcESaIcEEC2IS3_EEPKcRKS3_(ptr noundef nonnull align 8 dereferenceable(32) %0, ptr noundef @.str.17, ptr noundef nonnull align 1 dereferenceable(1) %17)
          to label %48 unwind label %49

48:                                               ; preds = %47
  call void @_ZNSaIcED1Ev(ptr noundef nonnull align 1 dereferenceable(1) %17) #3
  br label %71

49:                                               ; preds = %47
  %50 = landingpad { ptr, i32 }
          cleanup
  %51 = extractvalue { ptr, i32 } %50, 0
  store ptr %51, ptr %13, align 8
  %52 = extractvalue { ptr, i32 } %50, 1
  store i32 %52, ptr %14, align 4
  call void @_ZNSaIcED1Ev(ptr noundef nonnull align 1 dereferenceable(1) %17) #3
  br label %72

53:                                               ; preds = %33
  call void @_ZNSaIcEC1Ev(ptr noundef nonnull align 1 dereferenceable(1) %18) #3
  invoke void @_ZNSt7__cxx1112basic_stringIcSt11char_traitsIcESaIcEEC2IS3_EEPKcRKS3_(ptr noundef nonnull align 8 dereferenceable(32) %0, ptr noundef @.str.18, ptr noundef nonnull align 1 dereferenceable(1) %18)
          to label %54 unwind label %55

54:                                               ; preds = %53
  call void @_ZNSaIcED1Ev(ptr noundef nonnull align 1 dereferenceable(1) %18) #3
  br label %71

55:                                               ; preds = %53
  %56 = landingpad { ptr, i32 }
          cleanup
  %57 = extractvalue { ptr, i32 } %56, 0
  store ptr %57, ptr %13, align 8
  %58 = extractvalue { ptr, i32 } %56, 1
  store i32 %58, ptr %14, align 4
  call void @_ZNSaIcED1Ev(ptr noundef nonnull align 1 dereferenceable(1) %18) #3
  br label %72

59:                                               ; preds = %33
  call void @_ZNSaIcEC1Ev(ptr noundef nonnull align 1 dereferenceable(1) %20) #3
  invoke void @_ZNSt7__cxx1112basic_stringIcSt11char_traitsIcESaIcEEC2IS3_EEPKcRKS3_(ptr noundef nonnull align 8 dereferenceable(32) %19, ptr noundef @.str.19, ptr noundef nonnull align 1 dereferenceable(1) %20)
          to label %60 unwind label %62

60:                                               ; preds = %59
  invoke void @_ZN10open_spiel15SpielFatalErrorERKNSt7__cxx1112basic_stringIcSt11char_traitsIcESaIcEEE(ptr noundef nonnull align 8 dereferenceable(32) %19) #14
          to label %61 unwind label %66

61:                                               ; preds = %60
  unreachable

62:                                               ; preds = %59
  %63 = landingpad { ptr, i32 }
          cleanup
  %64 = extractvalue { ptr, i32 } %63, 0
  store ptr %64, ptr %13, align 8
  %65 = extractvalue { ptr, i32 } %63, 1
  store i32 %65, ptr %14, align 4
  br label %70

66:                                               ; preds = %60
  %67 = landingpad { ptr, i32 }
          cleanup
  %68 = extractvalue { ptr, i32 } %67, 0
  store ptr %68, ptr %13, align 8
  %69 = extractvalue { ptr, i32 } %67, 1
  store i32 %69, ptr %14, align 4
  call void @_ZNSt7__cxx1112basic_stringIcSt11char_traitsIcESaIcEED1Ev(ptr noundef nonnull align 8 dereferenceable(32) %19) #3
  br label %70

70:                                               ; preds = %66, %62
  call void @_ZNSaIcED1Ev(ptr noundef nonnull align 1 dereferenceable(1) %20) #3
  br label %72

71:                                               ; preds = %54, %48, %42, %36
  ret void

72:                                               ; preds = %70, %55, %49, %43, %37, %28
  %73 = load ptr, ptr %13, align 8
  %74 = load i32, ptr %14, align 4
  %75 = insertvalue { ptr, i32 } poison, ptr %73, 0
  %76 = insertvalue { ptr, i32 } %75, i32 %74, 1
  resume { ptr, i32 } %76
}