; Function Attrs: mustprogress uwtable
define void @_ZNK10open_spiel13cliff_walking17CliffWalkingState14ActionToStringB5cxx11Eil(ptr dead_on_unwind noalias writable sret(%"class.std::__cxx11::basic_string") align 8 %0, ptr nonnull readnone align 8 captures(none) %1, i32 noundef %2, i64 noundef %3) unnamed_addr #3 align 2 personality ptr @__gxx_personality_v0 {
  %5 = alloca i32, align 4
  %6 = alloca i32, align 4
  %7 = alloca %"class.std::__cxx11::basic_string", align 8
  %8 = alloca i32, align 4
  %9 = alloca %"class.std::allocator", align 1
  %10 = alloca %"class.std::allocator", align 1
  %11 = alloca %"class.std::allocator", align 1
  %12 = alloca %"class.std::allocator", align 1
  %13 = alloca %"class.std::__cxx11::basic_string", align 8
  %14 = alloca %"class.std::allocator", align 1
  store i32 %2, ptr %5, align 4
  store i32 0, ptr %6, align 4
  %15 = icmp eq i32 %2, 0
  br i1 %15, label %20, label %16

16:                                               ; preds = %4
  store i32 81, ptr %8, align 4
  call void @_ZN10open_spiel8internal11SpielStrCatIJRA146_KcRA2_S2_iS6_RA12_S2_RA8_S2_RA4_S2_RiRA7_S2_SD_EEENSt7__cxx1112basic_stringIcSt11char_traitsIcESaIcEEEDpOT_(ptr dead_on_unwind nonnull writable sret(%"class.std::__cxx11::basic_string") align 8 %7, ptr noundef nonnull align 1 dereferenceable(146) @.str.8, ptr noundef nonnull align 1 dereferenceable(2) @.str.9, ptr noundef nonnull align 4 dereferenceable(4) %8, ptr noundef nonnull align 1 dereferenceable(2) @.str.10, ptr noundef nonnull align 1 dereferenceable(12) @.str.11, ptr noundef nonnull align 1 dereferenceable(8) @.str.12, ptr noundef nonnull align 1 dereferenceable(4) @.str.13, ptr noundef nonnull align 4 dereferenceable(4) %5, ptr noundef nonnull align 1 dereferenceable(7) @.str.14, ptr noundef nonnull align 4 dereferenceable(4) %6)
  invoke void @_ZN10open_spiel15SpielFatalErrorERKNSt7__cxx1112basic_stringIcSt11char_traitsIcESaIcEEE(ptr noundef nonnull align 8 dereferenceable(32) %7) #23
          to label %17 unwind label %18

17:                                               ; preds = %16
  unreachable

18:                                               ; preds = %16
  %19 = landingpad { ptr, i32 }
          cleanup
  call void @_ZNSt7__cxx1112basic_stringIcSt11char_traitsIcESaIcEED1Ev(ptr noundef nonnull align 8 dereferenceable(32) %7) #24
  br label %53

20:                                               ; preds = %4
  switch i64 %3, label %45 [
    i64 0, label %21
    i64 1, label %27
    i64 2, label %33
    i64 3, label %39
  ]

21:                                               ; preds = %20
  call void @_ZNSaIcEC1Ev(ptr noundef nonnull align 1 dereferenceable(1) %9) #24
  %22 = invoke noundef ptr @_ZNSt7__cxx1112basic_stringIcSt11char_traitsIcESaIcEE13_M_local_dataEv(ptr noundef nonnull align 8 dereferenceable(32) %0)
          to label %.noexc unwind label %25

.noexc:                                           ; preds = %21
  invoke void @_ZNSt7__cxx1112basic_stringIcSt11char_traitsIcESaIcEE12_Alloc_hiderC1EPcRKS3_(ptr noundef nonnull align 8 dereferenceable(32) %0, ptr noundef %22, ptr noundef nonnull align 1 dereferenceable(1) %9)
          to label %.noexc7 unwind label %25

.noexc7:                                          ; preds = %.noexc
  invoke void @_ZNSt7__cxx1112basic_stringIcSt11char_traitsIcESaIcEE12_M_constructIPKcEEvT_S8_St20forward_iterator_tag(ptr noundef nonnull align 8 dereferenceable(32) %0, ptr noundef nonnull @.str.15, ptr noundef nonnull getelementptr inbounds nuw (i8, ptr @.str.15, i64 5))
          to label %_ZNSt7__cxx1112basic_stringIcSt11char_traitsIcESaIcEEC2IS3_EEPKcRKS3_.exit unwind label %23

23:                                               ; preds = %.noexc7
  %24 = landingpad { ptr, i32 }
          cleanup
  call void @_ZNSaIcED2Ev(ptr noundef nonnull align 8 dereferenceable(32) %0) #24
  br label %.body

25:                                               ; preds = %.noexc, %21
  %26 = landingpad { ptr, i32 }
          cleanup
  br label %.body

.body:                                            ; preds = %23, %25
  %eh.lpad-body = phi { ptr, i32 } [ %26, %25 ], [ %24, %23 ]
  call void @_ZNSaIcED1Ev(ptr noundef nonnull align 1 dereferenceable(1) %9) #24
  br label %53

27:                                               ; preds = %20
  call void @_ZNSaIcEC1Ev(ptr noundef nonnull align 1 dereferenceable(1) %10) #24
  %28 = invoke noundef ptr @_ZNSt7__cxx1112basic_stringIcSt11char_traitsIcESaIcEE13_M_local_dataEv(ptr noundef nonnull align 8 dereferenceable(32) %0)
          to label %.noexc8 unwind label %31

.noexc8:                                          ; preds = %27
  invoke void @_ZNSt7__cxx1112basic_stringIcSt11char_traitsIcESaIcEE12_Alloc_hiderC1EPcRKS3_(ptr noundef nonnull align 8 dereferenceable(32) %0, ptr noundef %28, ptr noundef nonnull align 1 dereferenceable(1) %10)
          to label %.noexc9 unwind label %31

.noexc9:                                          ; preds = %.noexc8
  invoke void @_ZNSt7__cxx1112basic_stringIcSt11char_traitsIcESaIcEE12_M_constructIPKcEEvT_S8_St20forward_iterator_tag(ptr noundef nonnull align 8 dereferenceable(32) %0, ptr noundef nonnull @.str.16, ptr noundef nonnull getelementptr inbounds nuw (i8, ptr @.str.16, i64 2))
          to label %_ZNSt7__cxx1112basic_stringIcSt11char_traitsIcESaIcEEC2IS3_EEPKcRKS3_.exit unwind label %29

29:                                               ; preds = %.noexc9
  %30 = landingpad { ptr, i32 }
          cleanup
  call void @_ZNSaIcED2Ev(ptr noundef nonnull align 8 dereferenceable(32) %0) #24
  br label %.body10

31:                                               ; preds = %.noexc8, %27
  %32 = landingpad { ptr, i32 }
          cleanup
  br label %.body10

.body10:                                          ; preds = %29, %31
  %eh.lpad-body11 = phi { ptr, i32 } [ %32, %31 ], [ %30, %29 ]
  call void @_ZNSaIcED1Ev(ptr noundef nonnull align 1 dereferenceable(1) %10) #24
  br label %53

33:                                               ; preds = %20
  call void @_ZNSaIcEC1Ev(ptr noundef nonnull align 1 dereferenceable(1) %11) #24
  %34 = invoke noundef ptr @_ZNSt7__cxx1112basic_stringIcSt11char_traitsIcESaIcEE13_M_local_dataEv(ptr noundef nonnull align 8 dereferenceable(32) %0)
          to label %.noexc13 unwind label %37

.noexc13:                                         ; preds = %33
  invoke void @_ZNSt7__cxx1112basic_stringIcSt11char_traitsIcESaIcEE12_Alloc_hiderC1EPcRKS3_(ptr noundef nonnull align 8 dereferenceable(32) %0, ptr noundef %34, ptr noundef nonnull align 1 dereferenceable(1) %11)
          to label %.noexc14 unwind label %37

.noexc14:                                         ; preds = %.noexc13
  invoke void @_ZNSt7__cxx1112basic_stringIcSt11char_traitsIcESaIcEE12_M_constructIPKcEEvT_S8_St20forward_iterator_tag(ptr noundef nonnull align 8 dereferenceable(32) %0, ptr noundef nonnull @.str.17, ptr noundef nonnull getelementptr inbounds nuw (i8, ptr @.str.17, i64 4))
          to label %_ZNSt7__cxx1112basic_stringIcSt11char_traitsIcESaIcEEC2IS3_EEPKcRKS3_.exit unwind label %35

35:                                               ; preds = %.noexc14
  %36 = landingpad { ptr, i32 }
          cleanup
  call void @_ZNSaIcED2Ev(ptr noundef nonnull align 8 dereferenceable(32) %0) #24
  br label %.body15

37:                                               ; preds = %.noexc13, %33
  %38 = landingpad { ptr, i32 }
          cleanup
  br label %.body15

.body15:                                          ; preds = %35, %37
  %eh.lpad-body16 = phi { ptr, i32 } [ %38, %37 ], [ %36, %35 ]
  call void @_ZNSaIcED1Ev(ptr noundef nonnull align 1 dereferenceable(1) %11) #24
  br label %53

39:                                               ; preds = %20
  call void @_ZNSaIcEC1Ev(ptr noundef nonnull align 1 dereferenceable(1) %12) #24
  %40 = invoke noundef ptr @_ZNSt7__cxx1112basic_stringIcSt11char_traitsIcESaIcEE13_M_local_dataEv(ptr noundef nonnull align 8 dereferenceable(32) %0)
          to label %.noexc18 unwind label %43

.noexc18:                                         ; preds = %39
  invoke void @_ZNSt7__cxx1112basic_stringIcSt11char_traitsIcESaIcEE12_Alloc_hiderC1EPcRKS3_(ptr noundef nonnull align 8 dereferenceable(32) %0, ptr noundef %40, ptr noundef nonnull align 1 dereferenceable(1) %12)
          to label %.noexc19 unwind label %43

.noexc19:                                         ; preds = %.noexc18
  invoke void @_ZNSt7__cxx1112basic_stringIcSt11char_traitsIcESaIcEE12_M_constructIPKcEEvT_S8_St20forward_iterator_tag(ptr noundef nonnull align 8 dereferenceable(32) %0, ptr noundef nonnull @.str.18, ptr noundef nonnull getelementptr inbounds nuw (i8, ptr @.str.18, i64 4))
          to label %_ZNSt7__cxx1112basic_stringIcSt11char_traitsIcESaIcEEC2IS3_EEPKcRKS3_.exit unwind label %41

41:                                               ; preds = %.noexc19
  %42 = landingpad { ptr, i32 }
          cleanup
  call void @_ZNSaIcED2Ev(ptr noundef nonnull align 8 dereferenceable(32) %0) #24
  br label %.body20

43:                                               ; preds = %.noexc18, %39
  %44 = landingpad { ptr, i32 }
          cleanup
  br label %.body20

.body20:                                          ; preds = %41, %43
  %eh.lpad-body21 = phi { ptr, i32 } [ %44, %43 ], [ %42, %41 ]
  call void @_ZNSaIcED1Ev(ptr noundef nonnull align 1 dereferenceable(1) %12) #24
  br label %53

45:                                               ; preds = %20
  call void @_ZNSaIcEC1Ev(ptr noundef nonnull align 1 dereferenceable(1) %14) #24
  invoke void @_ZNSt7__cxx1112basic_stringIcSt11char_traitsIcESaIcEEC2IS3_EEPKcRKS3_(ptr noundef nonnull align 8 dereferenceable(32) %13, ptr noundef nonnull @.str.19, ptr noundef nonnull align 1 dereferenceable(1) %14)
          to label %46 unwind label %48

46:                                               ; preds = %45
  invoke void @_ZN10open_spiel15SpielFatalErrorERKNSt7__cxx1112basic_stringIcSt11char_traitsIcESaIcEEE(ptr noundef nonnull align 8 dereferenceable(32) %13) #23
          to label %47 unwind label %50

47:                                               ; preds = %46
  unreachable

48:                                               ; preds = %45
  %49 = landingpad { ptr, i32 }
          cleanup
  br label %52

50:                                               ; preds = %46
  %51 = landingpad { ptr, i32 }
          cleanup
  call void @_ZNSt7__cxx1112basic_stringIcSt11char_traitsIcESaIcEED1Ev(ptr noundef nonnull align 8 dereferenceable(32) %13) #24
  br label %52

52:                                               ; preds = %50, %48
  %.pn = phi { ptr, i32 } [ %51, %50 ], [ %49, %48 ]
  call void @_ZNSaIcED1Ev(ptr noundef nonnull align 1 dereferenceable(1) %14) #24
  br label %53

_ZNSt7__cxx1112basic_stringIcSt11char_traitsIcESaIcEEC2IS3_EEPKcRKS3_.exit: ; preds = %.noexc19, %.noexc14, %.noexc9, %.noexc7
  %.sink = phi ptr [ %9, %.noexc7 ], [ %10, %.noexc9 ], [ %11, %.noexc14 ], [ %12, %.noexc19 ]
  call void @_ZNSaIcED1Ev(ptr noundef nonnull align 1 dereferenceable(1) %.sink) #24
  ret void

53:                                               ; preds = %52, %.body20, %.body15, %.body10, %.body, %18
  %.pn.pn = phi { ptr, i32 } [ %.pn, %52 ], [ %eh.lpad-body21, %.body20 ], [ %eh.lpad-body16, %.body15 ], [ %eh.lpad-body11, %.body10 ], [ %eh.lpad-body, %.body ], [ %19, %18 ]
  resume { ptr, i32 } %.pn.pn
}